; Function Attrs: mustprogress nounwind uwtable
define void @_ZNK5boost4urls14authority_view20encoded_host_addressEv(ptr dead_on_unwind noalias nocapture writable writeonly sret(%"class.boost::urls::pct_string_view") align 8 %0, ptr noundef nonnull align 8 dereferenceable(184) %1) local_unnamed_addr #3 align 2 personality ptr @__gxx_personality_v0 {
  %3 = alloca %"class.std::out_of_range", align 8
  %4 = alloca %"struct.boost::source_location", align 8
  %5 = getelementptr inbounds nuw i8, ptr %1, i64 8
  %6 = tail call { ptr, i64 } @_ZNK5boost4urls6detail8url_impl3getEi(ptr noundef nonnull align 8 dereferenceable(171) %5, i32 noundef 2) #28
  %7 = extractvalue { ptr, i64 } %6, 0
  %8 = extractvalue { ptr, i64 } %6, 1
  %9 = getelementptr inbounds nuw i8, ptr %1, i64 172
  %10 = load i32, ptr %9, align 4, !tbaa !72
  switch i32 %10, label %30 [
    i32 1, label %11
    i32 2, label %11
    i32 3, label %14
    i32 4, label %14
  ]

11:                                               ; preds = %2, %2
  %12 = getelementptr inbounds i8, ptr %1, i64 96
  %13 = load i64, ptr %12, align 8, !tbaa !38
  br label %30

14:                                               ; preds = %2, %2
  %15 = icmp eq i64 %8, 0
  br i1 %15, label %16, label %23

16:                                               ; preds = %14
  call void @llvm.lifetime.start.p0(i64 16, ptr nonnull %3) #28
  invoke void @_ZNSt12out_of_rangeC1EPKc(ptr noundef nonnull align 8 dereferenceable(16) %3, ptr noundef nonnull @.str.16)
          to label %.noexc unwind label %33

.noexc:                                           ; preds = %16
  call void @llvm.lifetime.start.p0(i64 24, ptr nonnull %4) #28
  store ptr @.str.17, ptr %4, align 8, !tbaa !43
  %17 = getelementptr inbounds nuw i8, ptr %4, i64 8
  store ptr @.str.18, ptr %17, align 8, !tbaa !45
  %18 = getelementptr inbounds nuw i8, ptr %4, i64 16
  store i32 589, ptr %18, align 8, !tbaa !46
  %19 = getelementptr inbounds nuw i8, ptr %4, i64 20
  store i32 87, ptr %19, align 4, !tbaa !47
  invoke void @_ZN5boost15throw_exceptionISt12out_of_rangeEEvRKT_RKNS_15source_locationE(ptr noundef nonnull align 8 dereferenceable(16) %3, ptr noundef nonnull align 8 dereferenceable(24) %4) #31
          to label %20 unwind label %21

20:                                               ; preds = %.noexc
  unreachable

21:                                               ; preds = %.noexc
  %22 = landingpad { ptr, i32 }
          catch ptr null
  call void @llvm.lifetime.end.p0(i64 24, ptr nonnull %4) #28
  call void @_ZNSt12out_of_rangeD1Ev(ptr noundef nonnull align 8 dereferenceable(16) %3) #28
  call void @llvm.lifetime.end.p0(i64 16, ptr nonnull %3) #28
  br label %.body

23:                                               ; preds = %14
  %24 = add i64 %8, -2
  %25 = add i64 %8, -1
  %.sroa.speculated.i = tail call i64 @llvm.umin.i64(i64 %25, i64 %24)
  %26 = getelementptr inbounds nuw i8, ptr %7, i64 1
  %27 = getelementptr inbounds i8, ptr %1, i64 96
  %28 = load i64, ptr %27, align 8, !tbaa !38
  %29 = add i64 %28, -2
  br label %30

30:                                               ; preds = %2, %23, %11
  %.sroa.6.0 = phi i64 [ %8, %2 ], [ %.sroa.speculated.i, %23 ], [ %8, %11 ]
  %.sroa.0.0 = phi ptr [ %7, %2 ], [ %26, %23 ], [ %7, %11 ]
  %.0 = phi i64 [ 0, %2 ], [ %29, %23 ], [ %13, %11 ]
  store ptr %.sroa.0.0, ptr %0, align 8, !tbaa !54, !alias.scope !74
  %31 = getelementptr inbounds nuw i8, ptr %0, i64 8
  store i64 %.sroa.6.0, ptr %31, align 8, !tbaa !59, !alias.scope !74
  %32 = getelementptr inbounds nuw i8, ptr %0, i64 16
  store i64 %.0, ptr %32, align 8, !tbaa !60, !alias.scope !74
  ret void

33:                                               ; preds = %16
  %34 = landingpad { ptr, i32 }
          catch ptr null
  br label %.body

.body:                                            ; preds = %21, %33
  %eh.lpad-body = phi { ptr, i32 } [ %34, %33 ], [ %22, %21 ]
  %35 = extractvalue { ptr, i32 } %eh.lpad-body, 0
  call void @__clang_call_terminate(ptr %35) #29
  unreachable
}